target datalayout = "e-m:e-p270:32:32-p271:32:32-p272:64:64-i64:64-i128:128-f80:128-n8:16:32:64-S128"
target triple = "x86_64-pc-linux-gnu"

%struct.archive_read = type { %struct.archive, ptr, i32, i64, i64, %struct.archive_read_client, [16 x %struct.archive_read_filter_bidder], ptr, i32, i64, i32, i32, [16 x %struct.archive_format_descriptor], ptr, ptr, ptr, %struct.anon }
%struct.archive = type { i32, i32, ptr, i32, ptr, i32, i32, ptr, %struct.archive_string, ptr, i32, i32, ptr, ptr, i64, i64, i64, i8, i64 }
%struct.archive_string = type { ptr, i64, i64 }
%struct.archive_read_client = type { ptr, ptr, ptr, ptr, ptr, ptr, i32, i32, i64, ptr }
%struct.archive_read_filter_bidder = type { ptr, ptr, ptr }
%struct.archive_format_descriptor = type { ptr, ptr, ptr, ptr, ptr, ptr, ptr, ptr, ptr, ptr, ptr }
%struct.anon = type { ptr, ptr, i32, ptr, ptr }
%struct.rar = type { i32, i64, [2 x i8], [4 x i8], i8, i8, i32, i64, i64, i64, i64, i32, ptr, ptr, i64, i64, [8 x i8], i64, i64, i64, i64, i64, i64, i64, i64, i64, i64, i64, i64, i8, i32, i32, ptr, i32, i8, i8, i64, i32, i8, ptr, i32, i32, i8, %struct.huffman_code, %struct.huffman_code, %struct.huffman_code, %struct.huffman_code, [404 x i8], %struct.lzss, i32, i32, [4 x i32], i32, i32, i8, %struct.rar_filters, i8, i8, i8, i32, %struct.CPpmd7, %struct.CPpmd7z_RangeDec, %struct.IByteIn, i32, ptr, ptr, ptr, ptr, %struct.rar_br, i32 }
%struct.huffman_code = type { ptr, i32, i32, i32, i32, i32, ptr }
%struct.lzss = type { ptr, i32, i64 }
%struct.rar_filters = type { ptr, ptr, ptr, i64, i32, i64, ptr, i64 }
%struct.CPpmd7 = type { ptr, ptr, ptr, i32, i32, i32, i32, i32, i32, i32, i32, i32, ptr, ptr, ptr, ptr, ptr, i32, [38 x i8], [128 x i8], [38 x i32], [256 x i8], [256 x i8], [256 x i8], %struct.CPpmd_See, [25 x [16 x %struct.CPpmd_See]], [128 x [64 x i16]] }
%struct.CPpmd_See = type { i16, i8, i8 }
%struct.CPpmd7z_RangeDec = type { %struct.IPpmd7_RangeDec, i32, i32, i32, i32, ptr }
%struct.IPpmd7_RangeDec = type { ptr, ptr, ptr }
%struct.IByteIn = type { ptr, ptr }
%struct.rar_br = type { i64, i32, i64, ptr }

@.str.5 = private unnamed_addr constant [11 x i8] c"hdrcharset\00", align 1
@.str.6 = private unnamed_addr constant [50 x i8] c"rar: hdrcharset option needs a character-set name\00", align 1

; Function Attrs: nounwind uwtable
define internal i32 @archive_read_format_rar_options(ptr noundef %0, ptr noundef %1, ptr noundef %2) #0 {
  %4 = alloca i32, align 4
  %5 = alloca ptr, align 8
  %6 = alloca ptr, align 8
  %7 = alloca ptr, align 8
  %8 = alloca ptr, align 8
  %9 = alloca i32, align 4
  store ptr %0, ptr %5, align 8
  store ptr %1, ptr %6, align 8
  store ptr %2, ptr %7, align 8
  store i32 -25, ptr %9, align 4
  %10 = load ptr, ptr %5, align 8
  %11 = getelementptr inbounds %struct.archive_read, ptr %10, i32 0, i32 13
  %12 = load ptr, ptr %11, align 8
  %13 = getelementptr inbounds %struct.archive_format_descriptor, ptr %12, i32 0, i32 0
  %14 = load ptr, ptr %13, align 8
  store ptr %14, ptr %8, align 8
  %15 = load ptr, ptr %6, align 8
  %16 = call i32 @strcmp(ptr noundef %15, ptr noundef @.str.5) #13
  %17 = icmp eq i32 %16, 0
  br i1 %17, label %18, label %46

18:                                               ; preds = %3
  %19 = load ptr, ptr %7, align 8
  %20 = icmp eq ptr %19, null
  br i1 %20, label %27, label %21

21:                                               ; preds = %18
  %22 = load ptr, ptr %7, align 8
  %23 = getelementptr inbounds i8, ptr %22, i64 0
  %24 = load i8, ptr %23, align 1
  %25 = sext i8 %24 to i32
  %26 = icmp eq i32 %25, 0
  br i1 %26, label %27, label %30

27:                                               ; preds = %21, %18
  %28 = load ptr, ptr %5, align 8
  %29 = getelementptr inbounds %struct.archive_read, ptr %28, i32 0, i32 0
  call void (ptr, i32, ptr, ...) @archive_set_error(ptr noundef %29, i32 noundef -1, ptr noundef @.str.6)
  br label %44

30:                                               ; preds = %21
  %31 = load ptr, ptr %5, align 8
  %32 = getelementptr inbounds %struct.archive_read, ptr %31, i32 0, i32 0
  %33 = load ptr, ptr %7, align 8
  %34 = call ptr @archive_string_conversion_from_charset(ptr noundef %32, ptr noundef %33, i32 noundef 0)
  %35 = load ptr, ptr %8, align 8
  %36 = getelementptr inbounds %struct.rar, ptr %35, i32 0, i32 65
  store ptr %34, ptr %36, align 8
  %37 = load ptr, ptr %8, align 8
  %38 = getelementptr inbounds %struct.rar, ptr %37, i32 0, i32 65
  %39 = load ptr, ptr %38, align 8
  %40 = icmp ne ptr %39, null
  br i1 %40, label %41, label %42

41:                                               ; preds = %30
  store i32 0, ptr %9, align 4
  br label %43

42:                                               ; preds = %30
  store i32 -30, ptr %9, align 4
  br label %43

43:                                               ; preds = %42, %41
  br label %44

44:                                               ; preds = %43, %27
  %45 = load i32, ptr %9, align 4
  store i32 %45, ptr %4, align 4
  br label %47

46:                                               ; preds = %3
  store i32 -20, ptr %4, align 4
  br label %47

47:                                               ; preds = %46, %44
  %48 = load i32, ptr %4, align 4
  ret i32 %48
}