; Function Attrs: nounwind uwtable
define internal range(i32 -30, 1) i32 @archive_read_format_rar_options(ptr noundef %0, ptr noundef readonly captures(none) %1, ptr noundef %2) #0 {
  %4 = getelementptr inbounds nuw i8, ptr %0, i64 2072
  %5 = load ptr, ptr %4, align 8
  %6 = load ptr, ptr %5, align 8
  %7 = tail call i32 @strcmp(ptr noundef nonnull dereferenceable(1) %1, ptr noundef nonnull dereferenceable(11) @.str.5) #21
  %8 = icmp eq i32 %7, 0
  br i1 %8, label %9, label %18

9:                                                ; preds = %3
  %10 = icmp eq ptr %2, null
  br i1 %10, label %14, label %11

11:                                               ; preds = %9
  %12 = load i8, ptr %2, align 1
  %13 = icmp eq i8 %12, 0
  br i1 %13, label %14, label %15

14:                                               ; preds = %11, %9
  tail call void (ptr, i32, ptr, ...) @archive_set_error(ptr noundef nonnull %0, i32 noundef -1, ptr noundef nonnull @.str.6) #19
  br label %18

15:                                               ; preds = %11
  %16 = tail call ptr @archive_string_conversion_from_charset(ptr noundef nonnull %0, ptr noundef nonnull %2, i32 noundef 0) #19
  %17 = getelementptr inbounds nuw i8, ptr %6, i64 20248
  store ptr %16, ptr %17, align 8
  %.not = icmp eq ptr %16, null
  %. = select i1 %.not, i32 -30, i32 0
  br label %18

18:                                               ; preds = %3, %14, %15
  %.010 = phi i32 [ -25, %14 ], [ %., %15 ], [ -20, %3 ]
  ret i32 %.010
}